; Function Attrs: nounwind sspstrong uwtable
define hidden range(i64 0, 21) i64 @rb_reg_last_defined(i64 noundef %0) local_unnamed_addr #2 {
  %2 = icmp eq i64 %0, 4
  br i1 %2, label %.thread, label %3

3:                                                ; preds = %1
  %4 = inttoptr i64 %0 to ptr
  %5 = getelementptr inbounds nuw i8, ptr %4, i64 24
  %6 = load i64, ptr %5, align 8, !tbaa !31
  %.not.i.i = icmp eq i64 %6, 0
  br i1 %.not.i.i, label %7, label %match_check.exit.i

7:                                                ; preds = %3
  %8 = load i64, ptr @rb_eTypeError, align 8, !tbaa !18
  tail call void (i64, ptr, ...) @rb_raise(i64 noundef %8, ptr noundef nonnull @.str.76) #30
  unreachable

match_check.exit.i:                               ; preds = %3
  %9 = getelementptr i8, ptr %4, i64 40
  %10 = load ptr, ptr %9, align 8, !tbaa !92
  %11 = load i64, ptr %10, align 8, !tbaa !18
  %12 = icmp eq i64 %11, -1
  br i1 %12, label %.thread, label %13

13:                                               ; preds = %match_check.exit.i
  %14 = getelementptr i8, ptr %4, i64 36
  %15 = load i32, ptr %14, align 4, !tbaa !40
  %16 = freeze i32 %15
  br label %17

17:                                               ; preds = %17, %13
  %.010.in.i = phi i32 [ %16, %13 ], [ %.010.i, %17 ]
  %.010.i = add i32 %.010.in.i, -1
  %18 = sext i32 %.010.i to i64
  %19 = getelementptr i64, ptr %10, i64 %18
  %20 = load i64, ptr %19, align 8, !tbaa !18
  %21 = icmp eq i64 %20, -1
  %22 = icmp sgt i32 %.010.i, 0
  %23 = and i1 %21, %22
  br i1 %23, label %17, label %match_last_index.exit, !llvm.loop !95

match_last_index.exit:                            ; preds = %17
  %24 = icmp slt i32 %.010.i, 0
  %.not = icmp eq i32 %.010.i, 0
  %. = select i1 %.not, i64 0, i64 20
  br i1 %24, label %.thread, label %25

.thread:                                          ; preds = %match_last_index.exit, %1, %match_check.exit.i
  br label %25

25:                                               ; preds = %match_last_index.exit, %.thread
  %26 = phi i64 [ 4, %.thread ], [ %., %match_last_index.exit ]
  ret i64 %26
}